target datalayout = "e-m:e-p270:32:32-p271:32:32-p272:64:64-i64:64-i128:128-f80:128-n8:16:32:64-S128"
target triple = "x86_64-pc-linux-gnu"

%struct._zend_accel_globals = type { i8, i8, i8, i8, i8, %struct._zend_accel_directives, ptr, ptr, [32 x i8], [32 x i8], i32, i8, i32, i8, i32, i64, i64, %struct._zend_array, i64, ptr, ptr, ptr, ptr, %struct._zend_string, [32768 x i8] }
%struct._zend_accel_directives = type { i64, i64, double, ptr, i64, i8, i8, i8, i8, i8, i8, i8, i8, i8, i8, i8, i64, i64, ptr, ptr, i64, i64, i64, i64, i64, ptr, ptr, ptr, i8, i8, i8, ptr, ptr }
%struct._zend_array = type { %struct._zend_refcounted_h, %union.anon.0, i32, %union.anon.1, i32, i32, i32, i32, i64, ptr }
%struct._zend_refcounted_h = type { i32, %union.anon }
%union.anon = type { i32 }
%union.anon.0 = type { i32 }
%union.anon.1 = type { ptr }
%struct._zend_string = type { %struct._zend_refcounted_h, i64, i64, [1 x i8] }
%struct._zend_compiler_globals = type { %struct._zend_stack, ptr, ptr, i32, ptr, ptr, ptr, ptr, i8, i8, i8, i8, i8, %struct._zend_llist, ptr, i8, i8, i8, i8, ptr, i32, i32, %struct._zend_oparray_context, %struct._zend_file_context, ptr, %struct._zend_array, ptr, i64, i8, i8, i8, ptr, ptr, %struct._zend_stack, ptr, i32, ptr, ptr, i64, i64, ptr, ptr, ptr, ptr, i32, %struct._zend_stack }
%struct._zend_llist = type { ptr, ptr, i64, i64, ptr, i8, ptr }
%struct._zend_oparray_context = type { i32, i32, i32, i32, i32, i32, i32, ptr, ptr, i8 }
%struct._zend_file_context = type { %struct._zend_declarables, ptr, i8, i8, ptr, ptr, ptr, %struct._zend_array }
%struct._zend_declarables = type { i64 }
%struct._zend_stack = type { i32, i32, i32, ptr }
%struct._zend_internal_function = type { i8, [3 x i8], i32, ptr, ptr, ptr, i32, i32, ptr, ptr, ptr, ptr, i32, ptr, ptr, ptr, [6 x ptr] }

@accel_globals = external global %struct._zend_accel_globals, align 8
@accel_startup_ok = external global i8, align 1
@file_cache_only = external global i8, align 1
@.str = private unnamed_addr constant [64 x i8] c"file_override_enabled has no effect when file_cache_only is set\00", align 1
@compiler_globals = external global %struct._zend_compiler_globals, align 8
@.str.1 = private unnamed_addr constant [12 x i8] c"file_exists\00", align 1
@orig_file_exists = internal global ptr null, align 8
@.str.2 = private unnamed_addr constant [8 x i8] c"is_file\00", align 1
@orig_is_file = internal global ptr null, align 8
@.str.3 = private unnamed_addr constant [12 x i8] c"is_readable\00", align 1
@orig_is_readable = internal global ptr null, align 8

; Function Attrs: nounwind uwtable
define hidden void @zend_accel_override_file_functions() #0 {
  %1 = alloca ptr, align 8
  %2 = alloca ptr, align 8
  %3 = alloca ptr, align 8
  %4 = alloca i64, align 8
  %5 = alloca ptr, align 8
  %6 = alloca ptr, align 8
  %7 = alloca ptr, align 8
  %8 = alloca ptr, align 8
  %9 = alloca i64, align 8
  %10 = alloca ptr, align 8
  %11 = alloca ptr, align 8
  %12 = alloca ptr, align 8
  %13 = alloca ptr, align 8
  %14 = alloca i64, align 8
  %15 = alloca ptr, align 8
  %16 = alloca ptr, align 8
  %17 = load i8, ptr getelementptr inbounds (%struct._zend_accel_globals, ptr @accel_globals, i32 0, i32 1), align 1
  %18 = trunc i8 %17 to i1
  br i1 %18, label %19, label %102

19:                                               ; preds = %0
  %20 = load i8, ptr @accel_startup_ok, align 1
  %21 = trunc i8 %20 to i1
  br i1 %21, label %22, label %102

22:                                               ; preds = %19
  %23 = load i8, ptr getelementptr inbounds (%struct._zend_accel_globals, ptr @accel_globals, i32 0, i32 5, i32 12), align 1
  %24 = trunc i8 %23 to i1
  br i1 %24, label %25, label %102

25:                                               ; preds = %22
  %26 = load i8, ptr @file_cache_only, align 1
  %27 = trunc i8 %26 to i1
  br i1 %27, label %28, label %29

28:                                               ; preds = %25
  call void (i32, ptr, ...) @zend_accel_error(i32 noundef 2, ptr noundef @.str)
  br label %102

29:                                               ; preds = %25
  %30 = load ptr, ptr getelementptr inbounds (%struct._zend_compiler_globals, ptr @compiler_globals, i32 0, i32 5), align 8
  store ptr %30, ptr %2, align 8
  store ptr @.str.1, ptr %3, align 8
  store i64 11, ptr %4, align 8
  %31 = load ptr, ptr %2, align 8
  %32 = load ptr, ptr %3, align 8
  %33 = load i64, ptr %4, align 8
  %34 = call ptr @zend_hash_str_find(ptr noundef %31, ptr noundef %32, i64 noundef %33) #10
  store ptr %34, ptr %5, align 8
  %35 = load ptr, ptr %5, align 8
  %36 = icmp ne ptr %35, null
  br i1 %36, label %37, label %43

37:                                               ; preds = %29
  %38 = load ptr, ptr %5, align 8
  %39 = load ptr, ptr %38, align 8
  %40 = icmp ne ptr %39, null
  call void @llvm.assume(i1 %40)
  %41 = load ptr, ptr %5, align 8
  %42 = load ptr, ptr %41, align 8
  store ptr %42, ptr %1, align 8
  br label %44

43:                                               ; preds = %29
  store ptr null, ptr %1, align 8
  br label %44

44:                                               ; preds = %43, %37
  %45 = load ptr, ptr %1, align 8
  store ptr %45, ptr %16, align 8
  %46 = icmp ne ptr %45, null
  br i1 %46, label %47, label %53

47:                                               ; preds = %44
  %48 = load ptr, ptr %16, align 8
  %49 = getelementptr inbounds %struct._zend_internal_function, ptr %48, i32 0, i32 13
  %50 = load ptr, ptr %49, align 8
  store ptr %50, ptr @orig_file_exists, align 8
  %51 = load ptr, ptr %16, align 8
  %52 = getelementptr inbounds %struct._zend_internal_function, ptr %51, i32 0, i32 13
  store ptr @accel_file_exists, ptr %52, align 8
  br label %53

53:                                               ; preds = %47, %44
  %54 = load ptr, ptr getelementptr inbounds (%struct._zend_compiler_globals, ptr @compiler_globals, i32 0, i32 5), align 8
  store ptr %54, ptr %7, align 8
  store ptr @.str.2, ptr %8, align 8
  store i64 7, ptr %9, align 8
  %55 = load ptr, ptr %7, align 8
  %56 = load ptr, ptr %8, align 8
  %57 = load i64, ptr %9, align 8
  %58 = call ptr @zend_hash_str_find(ptr noundef %55, ptr noundef %56, i64 noundef %57) #10
  store ptr %58, ptr %10, align 8
  %59 = load ptr, ptr %10, align 8
  %60 = icmp ne ptr %59, null
  br i1 %60, label %61, label %67

61:                                               ; preds = %53
  %62 = load ptr, ptr %10, align 8
  %63 = load ptr, ptr %62, align 8
  %64 = icmp ne ptr %63, null
  call void @llvm.assume(i1 %64)
  %65 = load ptr, ptr %10, align 8
  %66 = load ptr, ptr %65, align 8
  store ptr %66, ptr %6, align 8
  br label %68

67:                                               ; preds = %53
  store ptr null, ptr %6, align 8
  br label %68

68:                                               ; preds = %67, %61
  %69 = load ptr, ptr %6, align 8
  store ptr %69, ptr %16, align 8
  %70 = icmp ne ptr %69, null
  br i1 %70, label %71, label %77

71:                                               ; preds = %68
  %72 = load ptr, ptr %16, align 8
  %73 = getelementptr inbounds %struct._zend_internal_function, ptr %72, i32 0, i32 13
  %74 = load ptr, ptr %73, align 8
  store ptr %74, ptr @orig_is_file, align 8
  %75 = load ptr, ptr %16, align 8
  %76 = getelementptr inbounds %struct._zend_internal_function, ptr %75, i32 0, i32 13
  store ptr @accel_is_file, ptr %76, align 8
  br label %77

77:                                               ; preds = %71, %68
  %78 = load ptr, ptr getelementptr inbounds (%struct._zend_compiler_globals, ptr @compiler_globals, i32 0, i32 5), align 8
  store ptr %78, ptr %12, align 8
  store ptr @.str.3, ptr %13, align 8
  store i64 11, ptr %14, align 8
  %79 = load ptr, ptr %12, align 8
  %80 = load ptr, ptr %13, align 8
  %81 = load i64, ptr %14, align 8
  %82 = call ptr @zend_hash_str_find(ptr noundef %79, ptr noundef %80, i64 noundef %81) #10
  store ptr %82, ptr %15, align 8
  %83 = load ptr, ptr %15, align 8
  %84 = icmp ne ptr %83, null
  br i1 %84, label %85, label %91

85:                                               ; preds = %77
  %86 = load ptr, ptr %15, align 8
  %87 = load ptr, ptr %86, align 8
  %88 = icmp ne ptr %87, null
  call void @llvm.assume(i1 %88)
  %89 = load ptr, ptr %15, align 8
  %90 = load ptr, ptr %89, align 8
  store ptr %90, ptr %11, align 8
  br label %92

91:                                               ; preds = %77
  store ptr null, ptr %11, align 8
  br label %92

92:                                               ; preds = %91, %85
  %93 = load ptr, ptr %11, align 8
  store ptr %93, ptr %16, align 8
  %94 = icmp ne ptr %93, null
  br i1 %94, label %95, label %101

95:                                               ; preds = %92
  %96 = load ptr, ptr %16, align 8
  %97 = getelementptr inbounds %struct._zend_internal_function, ptr %96, i32 0, i32 13
  %98 = load ptr, ptr %97, align 8
  store ptr %98, ptr @orig_is_readable, align 8
  %99 = load ptr, ptr %16, align 8
  %100 = getelementptr inbounds %struct._zend_internal_function, ptr %99, i32 0, i32 13
  store ptr @accel_is_readable, ptr %100, align 8
  br label %101

101:                                              ; preds = %95, %92
  br label %102

102:                                              ; preds = %101, %28, %22, %19, %0
  ret void
}