; Function Attrs: nounwind uwtable
define hidden void @zend_accel_override_file_functions() local_unnamed_addr #0 {
  %1 = load i8, ptr getelementptr inbounds (%struct._zend_accel_globals, ptr @accel_globals, i64 0, i32 1), align 1
  %2 = and i8 %1, 1
  %.not = icmp eq i8 %2, 0
  br i1 %.not, label %.thread45, label %3

3:                                                ; preds = %0
  %4 = load i8, ptr @accel_startup_ok, align 1
  %5 = and i8 %4, 1
  %.not31 = icmp eq i8 %5, 0
  br i1 %.not31, label %.thread45, label %6

6:                                                ; preds = %3
  %7 = load i8, ptr getelementptr inbounds (%struct._zend_accel_globals, ptr @accel_globals, i64 0, i32 5, i32 12), align 1
  %8 = and i8 %7, 1
  %.not32 = icmp eq i8 %8, 0
  br i1 %.not32, label %.thread45, label %9

9:                                                ; preds = %6
  %10 = load i8, ptr @file_cache_only, align 1
  %11 = and i8 %10, 1
  %.not33 = icmp eq i8 %11, 0
  br i1 %.not33, label %13, label %12

12:                                               ; preds = %9
  tail call void (i32, ptr, ...) @zend_accel_error(i32 noundef 2, ptr noundef nonnull @.str) #14
  br label %.thread45

13:                                               ; preds = %9
  %14 = load ptr, ptr getelementptr inbounds (%struct._zend_compiler_globals, ptr @compiler_globals, i64 0, i32 5), align 8
  %15 = tail call ptr @zend_hash_str_find(ptr noundef %14, ptr noundef nonnull @.str.1, i64 noundef 11) #14
  %.not34 = icmp eq ptr %15, null
  br i1 %.not34, label %.thread, label %16

16:                                               ; preds = %13
  %17 = load ptr, ptr %15, align 8, !nonnull !4, !noundef !4
  %18 = getelementptr inbounds i8, ptr %17, i64 80
  %19 = load ptr, ptr %18, align 8
  store ptr %19, ptr @orig_file_exists, align 8
  store ptr @accel_file_exists, ptr %18, align 8
  br label %.thread

.thread:                                          ; preds = %13, %16
  %20 = load ptr, ptr getelementptr inbounds (%struct._zend_compiler_globals, ptr @compiler_globals, i64 0, i32 5), align 8
  %21 = tail call ptr @zend_hash_str_find(ptr noundef %20, ptr noundef nonnull @.str.2, i64 noundef 7) #14
  %.not36 = icmp eq ptr %21, null
  br i1 %.not36, label %.thread42, label %22

22:                                               ; preds = %.thread
  %23 = load ptr, ptr %21, align 8, !nonnull !4, !noundef !4
  %24 = getelementptr inbounds i8, ptr %23, i64 80
  %25 = load ptr, ptr %24, align 8
  store ptr %25, ptr @orig_is_file, align 8
  store ptr @accel_is_file, ptr %24, align 8
  br label %.thread42

.thread42:                                        ; preds = %.thread, %22
  %26 = load ptr, ptr getelementptr inbounds (%struct._zend_compiler_globals, ptr @compiler_globals, i64 0, i32 5), align 8
  %27 = tail call ptr @zend_hash_str_find(ptr noundef %26, ptr noundef nonnull @.str.3, i64 noundef 11) #14
  %.not38 = icmp eq ptr %27, null
  br i1 %.not38, label %.thread45, label %28

28:                                               ; preds = %.thread42
  %29 = load ptr, ptr %27, align 8, !nonnull !4, !noundef !4
  %30 = getelementptr inbounds i8, ptr %29, i64 80
  %31 = load ptr, ptr %30, align 8
  store ptr %31, ptr @orig_is_readable, align 8
  store ptr @accel_is_readable, ptr %30, align 8
  br label %.thread45

.thread45:                                        ; preds = %.thread42, %28, %12, %6, %3, %0
  ret void
}